(lp0
S'dtlz5_o6_d40_u'
p1
aF0.09457
aF0.12267
aF0.10261
aF0.10385
aF0.13359
aF0.11339
aF0.10895
aF0.12294
aF0.12418
aF0.12328
aF0.11624
aF0.09541
aF0.11743
aF0.11142
aF0.10707
aF0.11855
aF0.12195
aF0.10588
aF0.09555
aF0.10555
a.