(lp0
S'dtlz1_o4_d20_u'
p1
aF0.29036
aF0.32444
aF0.30048
aF0.32606
aF0.33751
aF0.34024
aF0.31076
aF0.31534
aF0.3113
aF0.34151
aF0.30128
aF0.30759
aF0.33238
aF0.3029
aF0.31378
aF0.2914
aF0.28538
aF0.32056
aF0.30387
aF0.32187
a.