(lp0
S'dtlz1_o8_d20_t'
p1
aF0.13278816199376947
aF0.14529021151008362
aF0.13305459911460896
aF0.13606738809640925
aF0.1324192490572225
aF0.13432529922938186
aF0.14018691588785046
aF0.13194786030496802
aF0.12553287424167897
aF0.13190686997868503
aF0.13885473028365306
aF0.1263321856041974
aF0.14192900475487785
aF0.1470527955402525
aF0.13770700114772913
aF0.14229791769142483
aF0.1294679455648467
aF0.13934661419904903
aF0.12895556648630924
aF0.1385063125102476
a.