(lp0
S'dtlz5_o2_d10_t'
p1
aF0.8469647935667353
aF0.8428459350789448
aF0.8468176914778857
aF0.848533882514465
aF0.8477003040109836
aF0.8551044424830833
aF0.8538295577130529
aF0.8553005786015495
aF0.8597136412670393
aF0.8471609296852015
aF0.8510346180249093
aF0.8445621261155242
aF0.8496126311660293
aF0.8498087672844954
aF0.8521624007060901
aF0.8565754633715799
aF0.847209963714818
aF0.8550554084534667
aF0.8580464842600765
aF0.8489751887810141
a.