(lp0
S'dtlz5_o2_d10_u'
p1
aF0.59636
aF0.61576
aF0.62822
aF0.6431
aF0.57541
aF0.61231
aF0.62773
aF0.56238
aF0.61255
aF0.59402
aF0.59065
aF0.58587
aF0.59585
aF0.59442
aF0.63193
aF0.59947
aF0.5608
aF0.60001
aF0.60877
aF0.59056
a.