(lp0
S'dtlz1_o8_d40_u'
p1
aF0.08037
aF0.0682
aF0.07494
aF0.07816
aF0.06665
aF0.06542
aF0.06528
aF0.07763
aF0.07201
aF0.062
aF0.07085
aF0.07693
aF0.06868
aF0.06288
aF0.07411
aF0.069
aF0.05657
aF0.07695
aF0.0816
aF0.06962
a.