(lp0
S'dtlz7_o2_d20_t'
p1
aF0.9566248227100489
aF0.9644361650331295
aF0.9584453523571625
aF0.9600753614598108
aF0.9556087131395669
aF0.9664472152247084
aF0.9618112153093842
aF0.9624039458921654
aF0.9582760007620822
aF0.9574715806854506
aF0.9620652427020047
aF0.9510150511230128
aF0.9603505578018163
aF0.9633142107157222
aF0.9548254620123203
aF0.9658544846419272
aF0.958699379749783
aF0.9706174982535617
aF0.9549101378098604
aF0.9678020279853511
a.