(lp0
S'dtlz1_o2_d10_t'
p1
aF0.9293505308560053
aF0.9448822163238222
aF0.9375
aF0.9502115129396151
aF0.93364299933643
aF0.937271897810219
aF0.940506801592568
aF0.9472461844724619
aF0.9531353682813537
aF0.9403201725282018
aF0.9437417053749171
aF0.947308394160584
aF0.9390137690776377
aF0.9445711678832117
aF0.9283137027206371
aF0.9452969475779694
aF0.9281063370935634
aF0.9305325149303252
aF0.9371474784339748
aF0.9501285666887856
a.