(lp0
S'dtlz1_o8_d10_u_spread'
p1
a(lp2
F0.535681621920087
aF0.24223626683087376
aF2.439723261625602
aF2.6503252357665037
aF181.79600785734314
aF70.58270123509314
aF301.12750400273774
aF46.11014705308042
aa(lp3
F21.92423949453448
aF23.445841004890482
aF17.561295188782307
aF18.34701244191782
aF69.14028124070667
aF287.53206783408496
aF249.49440084527836
aF10.470549651797423
aa(lp4
F26.514955658367843
aF7.2118808429012455
aF22.198126222468094
aF40.501040180895735
aF59.627404784015205
aF76.90141183214487
aF206.36323460042092
aF101.81962700571643
aa(lp5
F5.776425033121971
aF7.749055048912898
aF9.51488568733074
aF15.152920785598303
aF58.67848116180376
aF4.9672954944407195
aF256.0808284449409
aF197.85572065861263
aa(lp6
F2.672233889622308
aF2.8596786300252663
aF19.64995545050246
aF15.115795028757136
aF19.68198015373179
aF64.44852550686964
aF117.10081211121542
aF70.81618725074534
aa(lp7
F0.076683677731663
aF0.5564198465614054
aF0.3158534589145365
aF0.8948302259150773
aF2.5192277903631646
aF30.973102488565022
aF48.983585632445404
aF144.55547154355747
aa(lp8
F0.04565140840615972
aF0.36203700284024454
aF0.4800937987172364
aF12.519858493395152
aF5.178654904374683
aF8.590136549283693
aF341.8140514600487
aF491.29309856627503
aa(lp9
F0.04082576063922541
aF0.02190997665744094
aF0.32857863644731244
aF3.0732326989002448
aF11.952358738634809
aF118.92401553297489
aF144.09681672247604
aF153.92057385391598
aa(lp10
F0.0018210417031294228
aF0.6493307326734796
aF0.023509631583414552
aF81.66619567079663
aF25.805094892792
aF404.4382579274347
aF148.65799208300413
aF176.1712439882184
aa(lp11
F6.844233776750919
aF2.0284746274306293
aF8.468821887788511
aF24.694580488837385
aF0.669858685519478
aF266.79075425816836
aF197.46810463665295
aF28.024077114182205
aa(lp12
F0.8215117271158361
aF1.4636891239494285
aF0.15827368000098607
aF44.22214669215418
aF100.7456722094945
aF44.742607431241865
aF3.958066784805567
aF119.64595346949409
aa(lp13
F0.17409787492436216
aF0.03587831287150205
aF0.18634592278947026
aF0.6073445484976029
aF6.532863002319875
aF0.7801558394300218
aF255.56848119326955
aF270.65117482579797
aa(lp14
F7.694155709410106
aF8.338742336371482
aF12.993503863779209
aF115.13494752828919
aF15.282107798695563
aF57.12340832017993
aF19.430338085086348
aF143.48048884907288
aa(lp15
F6.350259002822376
aF1.4546989873428766
aF28.197993385003333
aF152.53851050836047
aF8.728106720025286
aF294.0996025758525
aF119.66741513044619
aF124.18523343679364
aa(lp16
F2.4710177689214357
aF1.5266435839972434
aF2.8067017872030187
aF1.3200805354357508
aF0.5559385102170009
aF97.60855370978052
aF39.974965422921144
aF142.14095161922106
aa(lp17
F5.519468298078259
aF4.053228179515164
aF12.51148862500607
aF3.0267447779447516
aF0.3199465318537714
aF10.715016297668408
aF192.6256944693252
aF326.52631019655007
aa(lp18
F0.006103997470621254
aF1.147847756340373
aF1.3202672509276272
aF2.5409335880827
aF59.60583370095701
aF18.262007043065378
aF45.453862661704335
aF170.9387269195474
aa(lp19
F0.026348374771301475
aF0.37939502421439747
aF2.93332496046435
aF13.333535851739729
aF114.40421592186294
aF13.211256524307586
aF123.9429846278808
aF123.67477983552465
aa(lp20
F25.117445054762907
aF11.296987763833553
aF2.7429190489979205
aF2.224462719768599
aF178.40098804375552
aF0.3114577343235679
aF9.829175524728555
aF213.02641732619608
aa(lp21
F0.18439624070013588
aF2.0769171839721547
aF3.2419940450130444
aF35.65440353392451
aF226.17860748491927
aF35.31822929054215
aF96.09650332105775
aF156.68572750973544
aa.