(lp0
S'dtlz3_o8_d20_u_spread'
p1
a(lp2
F24.325576772533275
aF155.54540868668226
aF47.62379690984033
aF345.9752738815602
aF84.59579678049354
aF381.36983631231845
aF567.4908707440861
aF551.6868411338684
aa(lp3
F652.1316632415204
aF958.1474427305782
aF123.05965852662631
aF1155.5899504996355
aF383.2971906061489
aF11.257962882885717
aF1183.0501729890466
aF147.78307557121815
aa(lp4
F0.19407148804718694
aF0.024432571906408566
aF11.973559167694958
aF0.3269629335721218
aF419.67555534607175
aF1592.7419022162433
aF65.5146901565343
aF1513.3682160577923
aa(lp5
F533.2819278677481
aF353.8659849489131
aF45.14777062300053
aF485.29304911018755
aF426.70584799495055
aF1587.8217099826625
aF88.75660670524576
aF298.2316892476595
aa(lp6
F6.087200064176313
aF267.9439481366689
aF195.18854561373885
aF740.5123917113154
aF827.5288035550848
aF284.9659384402346
aF58.82582483193619
aF454.2270971964903
aa(lp7
F0.19961873804885494
aF0.08672183104808415
aF0.044167381067049205
aF5.95424715744613
aF181.50844439725935
aF8.828649998942694
aF1609.119776490949
aF1716.7900979764822
aa(lp8
F112.65566867495733
aF85.3565893025683
aF209.0162924006298
aF249.99421076118966
aF1493.203276648374
aF3.8516224962104673
aF1893.722772028338
aF698.7661619832103
aa(lp9
F251.15387952467398
aF27.20132424846594
aF100.41199874559541
aF466.0703616941078
aF1497.5276667859748
aF369.6263777630181
aF188.99881790207246
aF666.2336638883603
aa(lp10
F39.763617415972945
aF72.49103527924187
aF205.2784810281906
aF131.83099830203338
aF1262.517331081623
aF865.2379442065692
aF1521.1105654916205
aF180.19140308469196
aa(lp11
F5.535454347436064
aF56.04270527169598
aF0.3244483403325492
aF216.03120003427722
aF528.7858068183665
aF6.799374503412764
aF611.0517485864358
aF415.1001299952403
aa(lp12
F55.25918615645577
aF26.34288763383388
aF342.8952923173204
aF30.043625970445547
aF202.71747293722865
aF977.7593846813545
aF1020.6520028486678
aF25.753709914029287
aa(lp13
F216.96137785182844
aF365.4620357721893
aF940.8688255742852
aF1350.141350354103
aF1067.2376246831052
aF94.42435128049505
aF256.6461197853611
aF1715.42804415875
aa(lp14
F137.0090853186874
aF95.72887383476507
aF41.95041464598058
aF892.0501759747062
aF1544.8800003467102
aF758.805256269519
aF64.93507683867489
aF1231.0961698708734
aa(lp15
F7.826510414640106
aF5.681310595728347
aF34.50561774939892
aF53.419820177319274
aF250.0881039737934
aF615.6792600419624
aF1002.3427408020139
aF742.8195695448827
aa(lp16
F0.4489693092764868
aF581.9968272870859
aF438.174443616479
aF750.068535793504
aF199.61424461923835
aF816.6379729226942
aF451.37063283445764
aF103.16380138325323
aa(lp17
F73.10013560326927
aF298.0573225503342
aF203.34382342323326
aF1969.7627552447855
aF478.51278806325183
aF135.10241407615973
aF1718.8426312748875
aF998.7738758446998
aa(lp18
F160.2463153404254
aF341.7275320147841
aF520.5387945218682
aF298.4506825107366
aF269.49812025153983
aF291.93306516664313
aF377.88854391979714
aF54.21766516809919
aa(lp19
F819.5436044457972
aF451.4926988723198
aF512.6966624847004
aF208.70947408926958
aF308.11074062395926
aF1583.2246238389823
aF0.7236273890736982
aF300.8487246288055
aa(lp20
F240.4515190851724
aF55.04758271839691
aF785.2256356013788
aF229.62430880446072
aF342.5349434281679
aF397.2734949577928
aF49.246699153235284
aF332.0465756723148
aa(lp21
F7.989578424441327
aF10.433572436264333
aF126.04131691058295
aF96.48288309761594
aF1.8304015186820073
aF132.31379952269302
aF8.063543180468287
aF966.645833794852
aa.