(lp0
S'dtlz3_o6_d10_u_spread'
p1
a(lp2
F6.24880685982275
aF17.65615354243212
aF1.6678412438960346
aF4.577576630475835
aF505.3142535587093
aF905.5390112800021
aa(lp3
F685.1179157804805
aF229.9524488177155
aF151.546604736489
aF368.67820973066057
aF114.7636223489229
aF49.01339697808376
aa(lp4
F1.800356799829096
aF586.405717703559
aF311.12696350429445
aF614.1202078326065
aF53.13205917358794
aF5.801856262619339
aa(lp5
F135.00142175215643
aF439.781859416604
aF61.54391918373071
aF449.28227365248205
aF838.4127704764809
aF85.43162150775865
aa(lp6
F86.79752944838567
aF214.11768311584018
aF595.8223362258661
aF102.36587612282878
aF335.1056654335516
aF25.705077706160093
aa(lp7
F193.4230995906637
aF1120.7049819462031
aF278.6540920732282
aF84.58240272857608
aF43.080980482049966
aF816.4528220011764
aa(lp8
F60.87684358562498
aF77.19156428517586
aF188.08314018513929
aF1.1985574509881762
aF166.74322286799438
aF332.79427864142673
aa(lp9
F0.06423882593417393
aF1.040340963482585
aF14.587903063525975
aF5.778964111786317
aF49.211530210286355
aF259.19804128104187
aa(lp10
F76.59086360307992
aF10.594481036673619
aF472.514857788313
aF502.05388027366706
aF460.00427759417136
aF348.5291475109871
aa(lp11
F1.250375347099193
aF2.9958106238801507
aF1.632022781228982
aF282.5348483010863
aF260.2190552322237
aF194.9542473873512
aa(lp12
F61.08224052781674
aF70.42958497727966
aF644.6079364131249
aF49.34640605171196
aF5.37714223139145
aF945.2386934312257
aa(lp13
F11.138354260156422
aF5.844791095058626
aF8.616878712734259
aF271.41422632837396
aF22.34540297830347
aF9.04984090489836
aa(lp14
F0.11008608909909681
aF0.1470265048875378
aF0.0023666289176242227
aF465.4806648163221
aF1.644786733155728
aF625.1876798009881
aa(lp15
F5.526189302072062
aF1.643100698877591
aF817.1427678030174
aF537.5599820582096
aF15.40311364926201
aF596.3824127690275
aa(lp16
F132.37925165682236
aF136.97545211194011
aF259.8652726740401
aF88.3441395466603
aF84.88827546336
aF2.0863359889205633
aa(lp17
F174.54890230519632
aF333.7104311216024
aF505.58309650912764
aF247.17651359438244
aF203.656128063647
aF209.31342069764224
aa(lp18
F36.11174983132426
aF0.9875421112677779
aF56.27751988753037
aF46.90991199565481
aF8.469576602636574
aF445.3732995077836
aa(lp19
F73.75336071750783
aF109.0517442135721
aF122.58790589553638
aF510.1751097145848
aF0.9516220617439788
aF83.50267982401365
aa(lp20
F65.81372323415232
aF733.8909942289404
aF9.00851179643297
aF195.25503232945897
aF38.8565586114411
aF133.6855026665446
aa(lp21
F0.040497289680692584
aF0.0021340709509528044
aF9.331220078885647
aF3.3805102083103353
aF2.878616296945988
aF38.33801426120152
aa.