(lp0
S'dtlz3_o6_d40_u_spread'
p1
a(lp2
F638.0393107574961
aF113.03515031086589
aF1454.6654113182294
aF1810.41917549766
aF1299.4790748955713
aF1421.0018534990925
aa(lp3
F419.46605774408533
aF764.2411157643478
aF271.8606517670637
aF624.1082114726441
aF422.19900932932046
aF292.7407704986799
aa(lp4
F174.8115659929695
aF1055.9964862748695
aF2205.152670269332
aF1225.606212574603
aF1665.3843229969748
aF646.2593148861353
aa(lp5
F1168.4222268043586
aF332.78147577643585
aF904.5526902676193
aF339.42096777097004
aF1432.8161716384834
aF1206.5433389741238
aa(lp6
F539.1825763938552
aF249.30514987084246
aF1135.3908476951856
aF1522.2013385696132
aF1509.1778636972372
aF84.8223182842064
aa(lp7
F1353.111041699598
aF51.68389206886839
aF30.80017598567636
aF1893.9784959704652
aF2070.6008437377736
aF488.31989457054965
aa(lp8
F250.58070368304976
aF91.07299000949894
aF329.7429266611573
aF334.85696289866473
aF2028.3169460137724
aF823.3269316191765
aa(lp9
F547.7569894221909
aF1094.3167685480291
aF666.6488639834611
aF253.57989646110354
aF742.7129120896977
aF540.2358468914265
aa(lp10
F13.26656773851656
aF43.62330811721483
aF127.43474476144758
aF866.9244949208746
aF1834.6992823905446
aF2089.992272469434
aa(lp11
F435.45899248565576
aF738.1189224731758
aF18.732671234219275
aF1838.043252672585
aF22.661213208016306
aF212.67946072691598
aa(lp12
F0.9487795168366154
aF8.493947847653684
aF24.57931228890453
aF1.3598701261517112
aF2515.622740478408
aF1038.4795389020796
aa(lp13
F1398.4952167826907
aF546.2994981932475
aF1313.9193590124462
aF2241.575187684963
aF2101.67365652601
aF479.43251681935385
aa(lp14
F177.8787928876868
aF94.19771049719292
aF136.3066840340342
aF1010.838289773653
aF3153.9594789473044
aF2424.946081254488
aa(lp15
F405.3706722332911
aF1278.4361331611647
aF308.50399888685274
aF229.82811190256746
aF2382.353948463973
aF97.13452376561418
aa(lp16
F77.36938457951535
aF32.153190293742114
aF445.4611384094239
aF1179.5539266138828
aF2613.8986919372464
aF1799.09673466409
aa(lp17
F738.0524781428305
aF3087.7800622742084
aF135.20965625736494
aF1222.9129229631496
aF2814.882532290073
aF1913.5340187075183
aa(lp18
F282.8988398219922
aF65.44637569461557
aF1326.5515719650616
aF1248.3807795327232
aF1198.4120590753378
aF68.49441235236964
aa(lp19
F159.24078089644118
aF99.35815106823384
aF19.644826886493583
aF757.8791264430378
aF809.9123893022364
aF1126.2856709370008
aa(lp20
F7.196099404823833
aF73.9720411161125
aF375.074846723963
aF3014.5983649088516
aF315.62884344300073
aF384.96819935143094
aa(lp21
F250.25852555942538
aF709.9239868566993
aF2214.9165669951653
aF1495.4864141523535
aF2567.9503332202416
aF538.5104818308087
aa.