(lp0
S'dtlz5_o4_d20_u_spread'
p1
a(lp2
F2.00458246491575
aF0.34198216824078354
aF1.2526063438171833
aF0.4818640919956737
aa(lp3
F0.32650168456057427
aF0.5781925451871613
aF0.242121708668547
aF0.39163349070764275
aa(lp4
F0.34795407643292403
aF0.5413527562666254
aF0.6024597788917849
aF0.2919347035051287
aa(lp5
F0.5784708612869212
aF0.48739350542051924
aF0.4912251619705721
aF0.15881847055271653
aa(lp6
F0.5347976259082861
aF0.06871478225065691
aF0.7363439355158061
aF0.10304811869209674
aa(lp7
F0.22304443439814683
aF0.15626224043149117
aF0.4543875910257871
aF0.18032706221978867
aa(lp8
F1.800593842314692
aF0.897026929233461
aF0.7586434067091109
aF1.7364329157291996
aa(lp9
F0.5481850464500072
aF0.20276306422961443
aF0.7176517955181894
aF1.2731734525656968
aa(lp10
F0.19419717430329295
aF0.4966161601994874
aF0.19152732518036597
aF0.7134269902651401
aa(lp11
F0.29638899417108394
aF0.36906866736681954
aF1.0359664562354107
aF0.805572306994799
aa(lp12
F0.5052196847826601
aF0.5455133211344684
aF0.6949963739786488
aF1.2308463187862775
aa(lp13
F0.9231027239107263
aF0.10675692886764554
aF0.9754009823538674
aF1.2848510781735865
aa(lp14
F0.6688298155206412
aF0.6546262996816455
aF1.0940310298490756
aF0.16559715842017486
aa(lp15
F0.3358613791585737
aF0.18942832198719461
aF0.7266136745662648
aF0.10885403367855429
aa(lp16
F0.3889468874962745
aF0.09024397763853531
aF0.24258403169451492
aF0.010610209852362107
aa(lp17
F0.7860943222959804
aF0.8598387593912649
aF1.461629493203318
aF2.2630405904810402
aa(lp18
F0.5071223709861066
aF0.4862441315959819
aF0.20674187857756365
aF0.4079971182344925
aa(lp19
F1.8431131766290734
aF0.25099743321768575
aF0.12732560749805377
aF1.3005036651262911
aa(lp20
F1.5369346853012686
aF0.09700234459804047
aF0.7564023802364439
aF0.12818321931820065
aa(lp21
F0.16970002122348948
aF0.16585248455698232
aF0.4773809930978883
aF0.8157301606017164
aa.