(lp0
S'dtlz5_o2_d40_u_spread'
p1
a(lp2
F0.0014122082250356272
aF0.176029783503177
aa(lp3
F0.14174607052114596
aF0.43509257995520234
aa(lp4
F0.7529383435424685
aF0.7499649978790118
aa(lp5
F0.4137533205770376
aF0.37654679130865754
aa(lp6
F1.145542443325993
aF1.336093701179627
aa(lp7
F0.9292154507252709
aF0.9412088064038548
aa(lp8
F0.8261118384029417
aF1.0548052653647197
aa(lp9
F0.08833298393826422
aF0.0011554836059546325
aa(lp10
F0.41059138415130403
aF0.37258201463791774
aa(lp11
F0.030698474530617803
aF0.02377757131438729
aa(lp12
F1.097206593693213
aF1.38367780098927
aa(lp13
F0.9185749476552553
aF0.9686046924123511
aa(lp14
F0.49964303060354465
aF0.33187333688826803
aa(lp15
F0.21531738059612948
aF0.37538255923838515
aa(lp16
F0.3719667385282803
aF0.17279896605344236
aa(lp17
F0.2780328496452291
aF0.2824236506256691
aa(lp18
F0.30914188288547706
aF0.26659269954579
aa(lp19
F0.0476052783220251
aF0.26339139922878685
aa(lp20
F0.20880214893958127
aF0.0012413825476443163
aa(lp21
F0.29339986840033716
aF0.1984791748935979
aa.