(lp0
S'dtlz5_o8_d10_u_spread'
p1
a(lp2
F0.03094886097889185
aF0.0022878858554285786
aF0.10809089084415921
aF0.08128289928976323
aF0.08761115615417059
aF0.33039732181716475
aF1.3093622132730949
aF0.5538290026720667
aa(lp3
F0.029678414778613042
aF0.02919481227092245
aF0.0845306875192395
aF0.16174507103062494
aF0.6533526927012413
aF1.0532271785233032
aF0.38236939561864913
aF0.6954033808325624
aa(lp4
F0.059841755557709125
aF0.02446596756097462
aF0.046883515406373366
aF0.12057253440126225
aF0.624472507372638
aF0.148748931224143
aF0.43050236972036804
aF0.7164606052119495
aa(lp5
F0.08703621385578558
aF0.02894648763377944
aF0.14609552746112642
aF0.06935199860081909
aF0.40726508712174136
aF0.0009322372739163365
aF0.7566954543189709
aF0.6093622816766934
aa(lp6
F0.02614013892118555
aF0.017089454111945027
aF0.12215529974849576
aF0.0480767097989335
aF0.1880847841289171
aF0.21420490544867438
aF0.12317285053259708
aF0.15702933943650899
aa(lp7
F0.12142157946440334
aF0.09152368343908306
aF0.3760716161187293
aF0.14574036422938136
aF0.5888002188234609
aF0.2786358997212709
aF0.5084894148715778
aF0.6074793256661497
aa(lp8
F0.07451072530067947
aF0.05594819089267651
aF0.1324975986735708
aF0.15397368895222324
aF0.5382915439566506
aF0.2731686851837477
aF0.299049361059633
aF1.1695728535568077
aa(lp9
F0.0010725249856392838
aF0.00763061186069014
aF0.11697955485374535
aF0.14765734259260105
aF0.14784219740360094
aF0.588421690096989
aF0.142660193040556
aF0.0570904669425904
aa(lp10
F0.10490828556762508
aF0.10673635810409843
aF0.23561335406957437
aF0.31173322676772586
aF0.3420088065124035
aF5.455876228477319e-05
aF0.6078180583086261
aF0.3177529429540981
aa(lp11
F0.12715187443604262
aF0.112289562916324
aF0.14880376331315803
aF0.20423347143254827
aF0.1485617292669909
aF0.46851839514362975
aF0.5490015687976821
aF0.032164911718531974
aa(lp12
F0.14649309607742123
aF0.07079940118647027
aF0.08527410388793757
aF0.05730741111556187
aF0.055580821425248894
aF0.33685473228784213
aF0.4064109545093524
aF0.19896462872521192
aa(lp13
F0.03735922737468178
aF0.03561262007103082
aF0.03636598261541446
aF0.10980190602204432
aF0.26251673195107383
aF0.011844585796895846
aF0.1183094663536357
aF0.8255090310911338
aa(lp14
F0.26509761256319775
aF0.22257177196121036
aF0.11876128002270922
aF0.021409552058754167
aF0.2638489819727517
aF0.25036552424975
aF0.2765962813367411
aF0.604057386699572
aa(lp15
F0.034560358687335896
aF0.03281285047310552
aF0.014503712756611331
aF0.06989443982377888
aF0.03698081201295242
aF0.0802127446720789
aF0.058827643718844636
aF0.2208512196782847
aa(lp16
F0.006304768662092841
aF0.0034051959143342747
aF0.035736579882048564
aF0.07140173953754775
aF0.06361306794231625
aF0.1843518497334813
aF0.49256059326779655
aF0.16119034705493113
aa(lp17
F0.06387794833024878
aF0.022066307131640137
aF0.26731901998269425
aF0.29530500450876035
aF0.27029565236769054
aF0.7593519978979186
aF0.792425297359024
aF0.7784464810502421
aa(lp18
F0.13912736162251796
aF0.224377897772284
aF0.17599443236878975
aF0.19987085982924896
aF0.10396133692689452
aF0.1492959106402561
aF0.2658320923447066
aF0.0962479679335172
aa(lp19
F0.13864549752778768
aF0.08762755219449145
aF0.21645774564617704
aF0.5467471056765647
aF0.30336672721561464
aF1.6589463279342223
aF0.8478395868066954
aF1.1116940351244915
aa(lp20
F0.015156066366354262
aF0.07576865316779935
aF0.06266924226365936
aF0.024705652811388812
aF0.12618090543896898
aF0.12076417299530728
aF0.29790181125609094
aF0.31557491112239655
aa(lp21
F0.0032151075515003402
aF0.02644830420606642
aF0.0708233648505992
aF0.06160076921222818
aF0.3641081142193517
aF0.6471837604084212
aF0.3690640849989073
aF0.6275078570928614
aa.