(lp0
S'dtlz7_o4_d20_u_spread'
p1
a(lp2
F0.0078018479358422654
aF0.04231811958713272
aF0.0
aF1.4060201166918525
aa(lp3
F0.0
aF0.23627897051311475
aF0.03340800727005577
aF0.778231884646555
aa(lp4
F0.0
aF0.06292857091377502
aF0.0
aF1.5605741430856792
aa(lp5
F0.0
aF0.0
aF0.0
aF0.07818477155475811
aa(lp6
F0.0015822404739694873
aF0.8533621435687623
aF0.23489964487397097
aF0.7130692482366108
aa(lp7
F0.8175281033608887
aF0.6375704710306986
aF0.0
aF0.08977651549542998
aa(lp8
F0.0
aF0.23400569237157098
aF0.2564465581517593
aF0.7021520552181197
aa(lp9
F0.03165801010413016
aF0.0006794630703408355
aF0.004559886900942001
aF0.5784979834324808
aa(lp10
F0.13219720294683324
aF0.015110442263733037
aF0.016185448669945757
aF1.068623591630594
aa(lp11
F0.22475892163946765
aF0.0
aF0.851278034091211
aF0.5992192846530262
aa(lp12
F9.881127612343388e-05
aF0.018633576135129615
aF0.18362519556653434
aF0.05902183597619626
aa(lp13
F0.020542459275664338
aF0.11130587261149716
aF0.002213027559504921
aF0.07040141030735114
aa(lp14
F0.0
aF0.0
aF0.936767453994827
aF4.2825924958710075
aa(lp15
F0.0
aF0.0003353538781483145
aF0.0007771486379576364
aF1.879316073532074
aa(lp16
F0.01242641153594004
aF0.039962929416498816
aF0.707516145290569
aF0.699262052044622
aa(lp17
F0.032155904217921694
aF0.11837256975520671
aF0.0
aF0.9283961595482264
aa(lp18
F0.16794148606156756
aF0.8984776654887446
aF0.004748386189618703
aF1.5168415377885918
aa(lp19
F0.0
aF0.8120798365929045
aF0.011657294317598987
aF0.4763319968954054
aa(lp20
F0.049906244590784965
aF0.0
aF0.008817272823111844
aF0.728448428290438
aa(lp21
F0.11200802371476459
aF0.042608396667542014
aF0.0
aF1.6179132198831443
aa.