(lp0
S'dtlz3_o4_d10_u_spread'
p1
a(lp2
F23.297892534074233
aF3.6304264027989563
aF168.9347347660848
aF602.4927380175595
aa(lp3
F1.0749110258885293
aF464.37479994711936
aF607.2696285043636
aF59.76524213413618
aa(lp4
F4.688626572983883
aF3.2002624844978147
aF86.46204238426077
aF81.33678166796602
aa(lp5
F130.8334227664525
aF21.749633649247635
aF191.62595933947404
aF580.823994775815
aa(lp6
F23.68103154167818
aF7.68078336593376
aF265.77759759236386
aF150.39462557947064
aa(lp7
F188.42567246469642
aF54.5015753517927
aF188.1824021077342
aF89.66284470437002
aa(lp8
F142.9055456521305
aF75.45542759259862
aF138.85079630951404
aF45.67055758685627
aa(lp9
F99.32374916916773
aF142.40211285764752
aF299.1408448602572
aF1.227860742037115
aa(lp10
F1.3102078126300187
aF0.2736689335158382
aF0.5087834727338123
aF177.20678448909217
aa(lp11
F46.49973685033096
aF105.88747588378239
aF130.10481115040903
aF1.5973088185203974
aa(lp12
F2.605493729037223
aF16.82825994772836
aF505.8164441984016
aF548.7382359451693
aa(lp13
F2.598528651115947
aF389.03375912797804
aF250.96361858551256
aF131.93099543420615
aa(lp14
F13.529755841928989
aF37.49847306241257
aF181.41274771657748
aF23.4723643167218
aa(lp15
F5.93657296658798
aF270.29269382331796
aF205.01384471636433
aF151.12040121985564
aa(lp16
F1.3955048279533793
aF2.784586715775701
aF161.4281839009421
aF10.088334360113137
aa(lp17
F526.0555869182886
aF29.808124301633562
aF540.5956826764125
aF10.017169121032321
aa(lp18
F9.53846786323837
aF17.815835926712857
aF399.6124401157705
aF614.0954092107949
aa(lp19
F376.3204932287995
aF467.0887621921662
aF8.3950339503937
aF20.04891979222075
aa(lp20
F0.006075546194903464
aF0.03420479256843612
aF188.33292300768179
aF259.6416940745364
aa(lp21
F419.03577650728545
aF2.155890108815781
aF2.931987898854905
aF280.79046369775784
aa.