(lp0
S'dtlz5_o6_d10_u_spread'
p1
a(lp2
F0.1805972703704456
aF0.1267076043557246
aF0.09578430517819092
aF0.2020810563273322
aF0.36619406331897175
aF0.18285588145314027
aa(lp3
F0.1768376906220252
aF0.10129518007892499
aF0.24367058028088961
aF0.09079282776166542
aF0.4966206589483686
aF0.4563661417359888
aa(lp4
F0.15407457601480834
aF0.02852746955464905
aF0.1196591226116227
aF0.18366705389635696
aF0.4725462594180512
aF0.9369679625913528
aa(lp5
F0.12465421370914159
aF0.04188731529545181
aF0.04856632540873043
aF0.316767736427375
aF0.5473249364209352
aF0.8702854746202102
aa(lp6
F0.17289192571162212
aF0.239025247462306
aF0.09307593616438897
aF0.19366163218851673
aF0.568934797053655
aF0.18405148844437091
aa(lp7
F0.24184565391423146
aF0.4000674039850586
aF0.19404524123280747
aF0.5234687246162432
aF1.0755033257727493
aF0.014998597141731629
aa(lp8
F0.18707794299522967
aF0.03598913732300599
aF0.08481099960766167
aF0.0066745589912895475
aF0.22136884777665
aF0.2564566833587089
aa(lp9
F0.07573453521930607
aF0.06665696450280739
aF0.5083286247923126
aF0.04921180697410543
aF0.008137445887489103
aF0.003975501528130698
aa(lp10
F0.24071221459107234
aF0.19737849473959687
aF0.4085529248249365
aF0.1868604053256746
aF0.5514844056900239
aF1.3592945915476635
aa(lp11
F0.07315456555990463
aF0.08671373167011714
aF0.2514823487967281
aF0.17869052021824483
aF0.011932807236858745
aF0.031726375633625015
aa(lp12
F0.24955013387422437
aF0.3023658345160991
aF0.4636767617090661
aF0.35293934998655807
aF0.24632709349041126
aF0.8414106280496314
aa(lp13
F0.37104807397740724
aF0.02283504562265065
aF0.04589274466335608
aF0.31989828044934415
aF0.6532292324027527
aF0.2831362641527878
aa(lp14
F0.09861822293633465
aF0.09679629998127398
aF0.0445853757214707
aF0.041742713167506884
aF0.9463801766306263
aF0.08572507386147121
aa(lp15
F0.20470697104945967
aF0.18917990301106724
aF0.040877506040712386
aF0.11045634593541775
aF0.11012865074462519
aF0.8015454006592148
aa(lp16
F0.03402361627544004
aF0.04578648331391327
aF0.01410812878255091
aF0.38988447239348767
aF0.33502904079158213
aF0.7055641099824675
aa(lp17
F0.31652596738239186
aF0.14516579686059977
aF0.037051946671494834
aF0.36506015549962956
aF1.1053004718238184
aF1.4370710563903863
aa(lp18
F0.03299008563347522
aF0.2844088823578889
aF0.007731649469063351
aF0.4327842830230023
aF0.310227777629555
aF0.035217579547678526
aa(lp19
F0.03931922569637189
aF0.1057716761984509
aF0.04995128984137326
aF0.22801211729956394
aF1.0079043809338672
aF0.7751134774743913
aa(lp20
F0.3002864902597143
aF0.2865094176892825
aF0.5981716142841262
aF0.3343720543441281
aF0.048919752141152406
aF0.5128213439879903
aa(lp21
F0.07133978679104072
aF0.12676105118243505
aF0.07352116475507686
aF0.32748001341158794
aF1.0349556903144534
aF0.9309716060308588
aa.