(lp0
S'dtlz3_o2_d20_u_spread'
p1
a(lp2
F128.7797893253969
aF120.03327407176168
aa(lp3
F130.2673970292887
aF122.04548766744213
aa(lp4
F104.95182858652487
aF64.80681881611798
aa(lp5
F44.39879959975805
aF14.982788392830457
aa(lp6
F75.974945708677
aF132.6705811549936
aa(lp7
F31.615657290902135
aF7.626925804711178
aa(lp8
F94.34533842692377
aF66.70430498528943
aa(lp9
F522.4023864062326
aF168.14218968846856
aa(lp10
F30.46718034847143
aF92.84209356328778
aa(lp11
F126.74431832556468
aF136.15813035796614
aa(lp12
F8.148464594969624
aF4.08693730887898
aa(lp13
F117.70301560719105
aF138.97021720689003
aa(lp14
F112.40133484649041
aF113.88569832316233
aa(lp15
F26.884355256269863
aF5.753034185009852
aa(lp16
F0.4175474005209221
aF10.6386107022158
aa(lp17
F43.55037196437726
aF22.693820299148342
aa(lp18
F0.3952409607693276
aF29.312518601357738
aa(lp19
F4.738756648988826
aF104.63979212105312
aa(lp20
F0.054841597112280205
aF6.123249326520892
aa(lp21
F145.00448911846274
aF148.36310465735693
aa.