(lp0
S'dtlz1_o4_d40_u_spread'
p1
a(lp2
F2.1626396358726154
aF145.92670939001823
aF400.39922817988275
aF45.93265067167272
aa(lp3
F653.6045585405295
aF1705.1337062978616
aF585.7057097432948
aF342.07406968006427
aa(lp4
F789.2900207893398
aF38.25076296905898
aF633.5814229685404
aF1419.6075967010438
aa(lp5
F129.30591433214602
aF113.41619758464634
aF664.9511712617315
aF261.35928902198543
aa(lp6
F27.76956573383794
aF495.5465614909995
aF172.7095940932727
aF864.3870782873139
aa(lp7
F960.4440500465626
aF514.7878879324958
aF8.265538109903588
aF768.4080997666488
aa(lp8
F1386.629507902186
aF49.40278209229763
aF1471.7809450214925
aF375.1254889144084
aa(lp9
F674.9071881543317
aF837.1925841549626
aF733.7820502350687
aF252.43992357999014
aa(lp10
F99.85044847827999
aF93.52248912370995
aF36.23724122869311
aF187.0345904454988
aa(lp11
F281.7819591276468
aF104.22133759760781
aF831.1516776491231
aF760.5730200860174
aa(lp12
F822.1169419722843
aF46.816251846773184
aF135.2061958579783
aF653.919224980104
aa(lp13
F1550.3441849106925
aF584.9498109411992
aF488.37546072422083
aF16.61799916602715
aa(lp14
F84.46140228124364
aF11.974148272467566
aF466.282874374253
aF686.2718443275569
aa(lp15
F163.57272183310005
aF30.820622212188567
aF149.93170158679004
aF292.961818863062
aa(lp16
F181.89761561739692
aF484.1701672435346
aF313.39263868330875
aF443.8148714937247
aa(lp17
F157.19859064744503
aF264.20678329650616
aF202.02314134018798
aF486.614529112568
aa(lp18
F159.91086897056294
aF229.57976125573452
aF470.3245188419283
aF36.06852574990535
aa(lp19
F44.72388588932605
aF82.89357179991022
aF297.7171159257174
aF463.86570386439826
aa(lp20
F403.4602600239906
aF47.33644974126637
aF994.1879308615185
aF1187.3929441765335
aa(lp21
F124.41081164281377
aF137.70240450782404
aF183.3851065135533
aF624.1379374681928
aa.