(lp0
S'dtlz1_o6_d40_u_spread'
p1
a(lp2
F23.512625196673614
aF6.441501937787862
aF16.08045410029357
aF1653.9053375569897
aF268.07592885637337
aF1717.3846557995007
aa(lp3
F34.1094623967065
aF68.58750532534849
aF293.6821318975277
aF10.89173303836148
aF1347.7519298605425
aF2146.9391664280606
aa(lp4
F264.4753857426311
aF38.36383156945985
aF216.49669272316402
aF31.20385404207161
aF310.91471660145544
aF173.67044061790727
aa(lp5
F203.31594326174616
aF67.02688865085686
aF56.44812145692149
aF502.08987412131603
aF1129.0594491504514
aF224.09762156326983
aa(lp6
F223.59037280379482
aF137.05808890898805
aF651.3931758810618
aF49.24284761869973
aF375.0490787182005
aF235.83504743110808
aa(lp7
F249.61107559935633
aF109.12359607765438
aF393.3275584774572
aF698.6273270518694
aF577.3708682595122
aF647.6524581860176
aa(lp8
F17.078712049124572
aF6.022908741622622
aF0.04975146260095098
aF11.936654735394466
aF1.647052628972375
aF83.05849647251353
aa(lp9
F210.08041473359242
aF12.44594629957537
aF636.1315598641929
aF68.12166401458607
aF279.07837997289107
aF869.6878452836756
aa(lp10
F92.1208365894295
aF657.1817596403877
aF456.6013044280003
aF216.03869127729314
aF286.03099265902244
aF1373.2593244713767
aa(lp11
F16.554769369056267
aF98.3481611331226
aF281.7283422374458
aF52.19111883277289
aF47.64584907464118
aF631.3923676297318
aa(lp12
F322.4278923640092
aF95.79881084033963
aF175.90747338378753
aF300.7715786377038
aF95.65273699082479
aF1179.372431602857
aa(lp13
F7.463828657414877
aF4.574013782184266
aF83.88383712806662
aF1203.3546149313881
aF429.81392674936734
aF833.1084864924861
aa(lp14
F0.10990770089665863
aF1.0461354828829987
aF30.02224469281036
aF329.9393086039807
aF4.253295471586808
aF655.5836929912446
aa(lp15
F0.23727268705701576
aF21.550795394274
aF914.6775438931535
aF535.8418140519791
aF1172.7074828079046
aF678.5501524314604
aa(lp16
F45.63700842835943
aF86.44527418834542
aF355.00275763142895
aF173.43451919595793
aF123.46662004934129
aF439.28536320272184
aa(lp17
F13.123137248581468
aF0.9280159521573041
aF202.84829362599845
aF19.417034062204195
aF225.2708204484362
aF268.34236923317803
aa(lp18
F21.353970135070284
aF12.501949279167164
aF37.19310708637451
aF378.4760450040743
aF150.6719962874971
aF446.58480085320446
aa(lp19
F51.69735821382186
aF45.24411853073149
aF7.513622467424793
aF93.37231412324556
aF941.7531020642457
aF797.7293215760989
aa(lp20
F18.319056902806253
aF94.67534958615356
aF295.7608580761494
aF179.62889265160663
aF434.49718073512156
aF666.2423855458866
aa(lp21
F10.485468767421757
aF1.6550276628556537
aF6.8182822073992915
aF85.86815496991892
aF1183.6596809987645
aF598.757894269143
aa.