(lp0
S'dtlz3_o8_d10_u_spread'
p1
a(lp2
F0.5203242544016429
aF0.6082043589169774
aF0.5229020115490715
aF0.6053945281275653
aF6.142545550285399
aF39.909654049214105
aF610.5867629078035
aF663.5950444147686
aa(lp3
F108.07450316281029
aF5.006566032532768
aF726.1021992321475
aF11.730333204278466
aF47.14286910475394
aF3.6023947292473686
aF691.5098678306765
aF232.10159273307096
aa(lp4
F19.87413772098727
aF5.614548661340791
aF176.66223386884565
aF49.53041091418093
aF731.2759085301359
aF205.94917936369438
aF28.518037324118673
aF43.648340541660644
aa(lp5
F28.490682433783746
aF3.2183207918843664
aF1.202122621622384
aF58.262660101936106
aF1143.412991023366
aF155.93318674547237
aF29.72669480385656
aF48.779862996775684
aa(lp6
F51.5802570243431
aF37.006969440695
aF143.03679790134686
aF412.39272728683994
aF220.3254463625646
aF334.53466322847623
aF473.3633814263013
aF485.6156358863351
aa(lp7
F16.298872446629506
aF0.36887533690656205
aF0.26513423865697355
aF22.594048636425164
aF90.86356683167223
aF15.865046600927712
aF18.509231655863204
aF22.3474033418546
aa(lp8
F14.192373944952118
aF9.309835532594933
aF43.448886506755024
aF412.5742934734814
aF758.6614117137741
aF63.3291282308095
aF349.3747955876662
aF287.0101490536068
aa(lp9
F161.51991132702412
aF83.97731490579194
aF226.11325684859483
aF9.6809695636179
aF108.7570464676063
aF789.7208301482387
aF34.87898464644503
aF626.4140111324094
aa(lp10
F6.273735081561586
aF3.602608836841716
aF2.729067267597376
aF49.19627771817389
aF17.339276293639593
aF58.2368512362292
aF425.0332969141233
aF45.49909814878645
aa(lp11
F0.48585829739443576
aF130.2872417168188
aF48.629810287029464
aF19.827019696623225
aF515.2953238707196
aF508.8612764078473
aF112.09591432504862
aF279.0457529685284
aa(lp12
F85.83780052758597
aF117.49585394346727
aF589.680195724351
aF46.60592840979699
aF60.765601887561964
aF333.7754505879195
aF164.90537250319267
aF210.84949561517664
aa(lp13
F10.7432934780165
aF5.286506029275871
aF0.2140476519130665
aF6.201881007435517
aF550.4864005883478
aF203.43686562270227
aF490.08828304690974
aF792.9719214103939
aa(lp14
F20.42575032308729
aF19.221183210682984
aF0.26327492825263477
aF65.03471441365637
aF711.0734131189289
aF1126.3999745428434
aF100.72868000401184
aF173.6337568076073
aa(lp15
F1.0360848776257492
aF9.260831455580968
aF2.9636670209069758
aF5.433770910332802
aF105.7087171287239
aF69.22160123578324
aF853.9746802452844
aF760.8115201388197
aa(lp16
F70.12057923965351
aF4.016570976643082
aF101.08626554200201
aF738.0904368429943
aF722.5085867457669
aF19.348947429268883
aF629.8161734031479
aF121.74277705018228
aa(lp17
F3.0702263228892845
aF64.82649723330927
aF234.78245180947474
aF337.52430876431686
aF406.8558670366565
aF544.301467359826
aF616.9292249750584
aF20.476003843678768
aa(lp18
F2.0599393312304897
aF188.32265329772417
aF407.64492131254366
aF295.2862236367641
aF171.6614267445035
aF353.6051691638917
aF76.94524322936655
aF587.5247063136064
aa(lp19
F145.11768855432877
aF194.8077744592465
aF328.0507002881151
aF403.6404498760958
aF176.81986819113186
aF13.192782788120503
aF377.9899519111395
aF0.6380893560502017
aa(lp20
F15.455827096684931
aF2.8168160581293367
aF32.800084521381756
aF94.62517496360907
aF19.963546261661772
aF1081.9163469571276
aF793.0886218648598
aF209.37760538629178
aa(lp21
F28.36337439009106
aF6.405285535953962
aF26.055204091089344
aF139.73303057786123
aF648.795496155946
aF151.44846652610278
aF178.95292902781827
aF96.0165691378862
aa.