(lp0
S'dtlz3_o2_d10_u_spread'
p1
a(lp2
F21.250435444545257
aF1.9410333176663759
aa(lp3
F35.77204885824716
aF29.718258666774155
aa(lp4
F16.796414759568897
aF20.963947541336374
aa(lp5
F9.575892029672529
aF12.381147219421592
aa(lp6
F37.98586751988512
aF3.9929740760635557
aa(lp7
F25.20066855505425
aF32.79325151670196
aa(lp8
F39.69654000939579
aF62.867760183324755
aa(lp9
F0.0023795577884250796
aF0.9858526140796684
aa(lp10
F0.01955113129041225
aF2.6701670398575317
aa(lp11
F27.149442831747958
aF29.847325479312904
aa(lp12
F14.13150978207127
aF45.101639138004835
aa(lp13
F7.119453473071643
aF4.9727178141327855
aa(lp14
F0.007040859872056715
aF1.8594312304152538
aa(lp15
F56.82031362262238
aF44.65098145982095
aa(lp16
F0.045630150768285194
aF8.02612724570001
aa(lp17
F0.8300161721273156
aF6.460937200330273
aa(lp18
F71.27556714091152
aF99.90534256840704
aa(lp19
F23.64378153877646
aF19.619046668984875
aa(lp20
F19.675497089736194
aF34.52174896088033
aa(lp21
F1.8843095926194096
aF0.01020201119449704
aa.