(lp0
S'dtlz7_o8_d20_u_spread'
p1
a(lp2
F0.5165971377202052
aF0.5876301116959202
aF0.2357427511447212
aF0.11615796396802436
aF0.061978369050168514
aF0.4897962781675286
aF0.1788929373797945
aF5.635395922545776
aa(lp3
F0.12427917707019687
aF0.24950461226341314
aF0.6425333626030919
aF0.45195127689170234
aF0.00336572660861556
aF0.016701218710272303
aF0.6428602119705896
aF0.005836851736923165
aa(lp4
F0.8144448079509429
aF0.5955533739687923
aF0.3158954233938528
aF0.3301157565501004
aF0.6429707839556785
aF0.4197756896735618
aF0.41826792073333185
aF3.0948921931970688
aa(lp5
F0.902753057008297
aF0.028070489091735484
aF0.4128303962622707
aF0.03835994851541569
aF0.359056323555509
aF0.5002714502857583
aF0.32053896960882344
aF2.804484691226719
aa(lp6
F0.020882283225880927
aF0.14049589271213714
aF0.6198684431381974
aF0.2242445365175244
aF0.7983245241158692
aF0.6623048474505191
aF0.11420262359164135
aF3.4719190610435433
aa(lp7
F0.238964653201456
aF0.03673013302565309
aF0.5588346839982712
aF0.6228148222867418
aF0.3930117417693395
aF0.052957391262240416
aF0.017748061745778143
aF3.155777645541008
aa(lp8
F0.27609547735070095
aF0.4246687313452605
aF0.2509803597647068
aF0.2468660527328399
aF0.6697741760266167
aF0.12109764855113014
aF0.24786352722983607
aF1.4269830632246538
aa(lp9
F0.09928329240081757
aF0.27115128260518795
aF0.16390722726756868
aF0.4333610132926705
aF0.04056861657690414
aF0.18990771256600925
aF0.19442303441843323
aF1.186652610201719
aa(lp10
F0.2925089442047504
aF0.7607212536599476
aF0.41335985742044834
aF0.06746569109660139
aF0.04457675521057747
aF0.21146791363304251
aF0.4905253452948949
aF6.27088304544732
aa(lp11
F0.5416556437354374
aF0.31739128878300094
aF0.7523306355024387
aF0.8406593865043834
aF0.1375351051658451
aF0.2905463964017547
aF0.1267520187522989
aF4.523057066413024
aa(lp12
F0.7020340956896185
aF0.38386980911737767
aF0.6710915295780088
aF0.47547745447042444
aF0.33525997896606696
aF0.22723297174350832
aF0.1844155613265558
aF0.22536236229186102
aa(lp13
F0.10327839454584664
aF0.1382408036416548
aF0.040116082257453334
aF0.05729735919838175
aF0.23387760324907314
aF0.6434291893004077
aF0.38864883790253346
aF2.0667083709489873
aa(lp14
F0.6871794129588836
aF0.9161440832807501
aF0.06199088417382459
aF0.4036545286704726
aF0.3626493567237219
aF0.24018015841463347
aF0.7747674917861149
aF8.798608214778923
aa(lp15
F0.03305852452343716
aF0.6904866503919216
aF0.42950979406590184
aF0.647977743495553
aF0.13646355173723634
aF0.009828625224234222
aF0.9516981209303343
aF0.8871780036057899
aa(lp16
F0.16520085557563446
aF0.0017935132176180035
aF0.39246104231557255
aF0.257497055335961
aF0.015592066725898968
aF0.2145154863090708
aF0.865892338744479
aF2.071879864499067
aa(lp17
F0.7798545875256947
aF0.31491146844277973
aF0.0819514129098583
aF0.2580111842657904
aF0.03574175692175041
aF0.3870746571575632
aF0.18732979242065828
aF6.1834760100793105
aa(lp18
F0.11601453994494337
aF0.17637775359264374
aF0.3722981855649323
aF0.0
aF0.16704584125421407
aF0.3638740566273174
aF0.0
aF6.705725010561778
aa(lp19
F0.1270769054951716
aF0.025743174809271685
aF0.8218862078777038
aF0.3760261376283972
aF0.6168663048528907
aF0.3490821332922317
aF0.07334736200008862
aF6.018779731327896
aa(lp20
F0.02495740130620472
aF0.08440548239714629
aF0.8049922872570457
aF0.4320828783642382
aF0.658428464723405
aF0.7283699891409662
aF0.0531388067137587
aF4.655268620776916
aa(lp21
F0.15609922318752623
aF0.3195378001691147
aF0.4116194313025142
aF0.12250265959464468
aF0.12175707821554316
aF0.1335613675912405
aF0.016013683846601068
aF3.8182616478297504
aa.