(lp0
S'dtlz7_o2_d40_u_spread'
p1
a(lp2
F0.09449040397196518
aF0.28910315412299603
aa(lp3
F0.689515782088833
aF0.620852009789262
aa(lp4
F0.6474162128741228
aF1.0881275634260215
aa(lp5
F0.5546881204685725
aF0.20937105375951237
aa(lp6
F0.007547832369360186
aF0.19075926188648484
aa(lp7
F0.0
aF0.12057455741087697
aa(lp8
F0.6709096572546683
aF0.5749346166396521
aa(lp9
F0.0
aF0.14623530011853436
aa(lp10
F0.008161467500675146
aF0.07119537357718553
aa(lp11
F0.0
aF0.37747160031403126
aa(lp12
F0.06945622770007664
aF0.6075831512645902
aa(lp13
F0.0
aF0.01532461108338179
aa(lp14
F0.12030051707173828
aF0.06918516224928961
aa(lp15
F0.7912566789027625
aF1.0228939456353316
aa(lp16
F0.10299167004567988
aF0.48347096570731374
aa(lp17
F0.6716175700873988
aF0.7578475570211562
aa(lp18
F0.5368378548911925
aF0.4049851231757433
aa(lp19
F0.16141950604506683
aF0.39798533658643453
aa(lp20
F0.837644026265358
aF2.240444537411604
aa(lp21
F0.5948515394491477
aF0.07856232911048266
aa.