(lp0
S'dtlz5_o4_d40_u_spread'
p1
a(lp2
F0.44725971700820105
aF0.21868498454489949
aF2.261215130733486
aF1.6436603566541792
aa(lp3
F0.3618997838457634
aF1.0581844057260128
aF0.30431636422789454
aF1.1677276732979196
aa(lp4
F1.6830824812485403
aF0.520693488550707
aF0.9499290263283275
aF0.26778163347193895
aa(lp5
F3.360130155209534
aF0.9923076786286602
aF0.8819335226550196
aF3.0388368814933413
aa(lp6
F0.6536596884218234
aF1.7089862248802032
aF0.32130212419065596
aF0.8511010521558449
aa(lp7
F0.09066432303255545
aF1.6940329810010692
aF0.3856015743313288
aF1.0378882997461585
aa(lp8
F0.27603470674919667
aF0.8602605427583464
aF3.723626519737966
aF3.3070470620745374
aa(lp9
F0.7319187309578826
aF3.614124733159752
aF2.9244123541639797
aF0.5602993202477426
aa(lp10
F0.21249287078431778
aF0.02208120390180318
aF2.123424693946541
aF2.802737460963727
aa(lp11
F0.154310853160434
aF0.5990444637113731
aF2.935851741311364
aF1.0315523357125604
aa(lp12
F0.4299054633688474
aF0.04701851802841961
aF1.3886783464831685
aF1.689291697040791
aa(lp13
F0.24032146218285272
aF1.1181908576897162
aF0.7155664126287693
aF1.0380548195896964
aa(lp14
F0.7300378753019798
aF0.4704295750995393
aF0.052107063336820136
aF0.50828874653018
aa(lp15
F0.29672895569321356
aF2.291154899888405
aF2.7275704098745064
aF0.00416746049480235
aa(lp16
F0.7434134916213706
aF0.42700611162739105
aF1.0683265826854695
aF1.991566351229558
aa(lp17
F0.8884056567050783
aF2.0828291619355217
aF1.0618018408719931
aF2.3581675775767073
aa(lp18
F0.5818197317893087
aF1.490354066871029
aF1.694666161955534
aF0.4894861991771743
aa(lp19
F1.0599526112505824
aF1.294485206249082
aF1.6589649772848634
aF0.07312071506321494
aa(lp20
F0.2742899125009182
aF0.5832384256483261
aF1.0001318035538853
aF1.5842200738058994
aa(lp21
F0.08049846957500617
aF0.10846711098672723
aF2.375866960323892
aF1.5528514670873939
aa.